; Function Attrs: mustprogress uwtable
define void @_ZNK4cvc58internal6parser11SymbolTable28getOverloadedConstantForTypeERKNSt7__cxx1112basic_stringIcSt11char_traitsIcESaIcEEENS_4SortE(ptr noalias sret(%"class.cvc5::Term") align 8 %agg.result, ptr nocapture noundef nonnull readonly align 8 dereferenceable(8) %this, ptr noundef nonnull align 8 dereferenceable(32) %name, ptr nocapture noundef readonly %t) local_unnamed_addr #3 align 2 personality ptr @__gxx_personality_v0 {
entry:
  %agg.tmp.i = alloca %"class.cvc5::Sort", align 16
  %agg.tmp = alloca %"class.cvc5::Sort", align 16
  %0 = load ptr, ptr %this, align 8
  %1 = load ptr, ptr %t, align 8
  store ptr %1, ptr %agg.tmp, align 16
  %d_type.i = getelementptr inbounds i8, ptr %agg.tmp, i64 8
  %d_type3.i = getelementptr inbounds i8, ptr %t, i64 8
  %2 = load ptr, ptr %d_type3.i, align 8
  store ptr %2, ptr %d_type.i, align 8
  %_M_refcount.i.i.i = getelementptr inbounds i8, ptr %agg.tmp, i64 16
  %_M_refcount3.i.i.i = getelementptr inbounds i8, ptr %t, i64 16
  %3 = load ptr, ptr %_M_refcount3.i.i.i, align 8
  store ptr %3, ptr %_M_refcount.i.i.i, align 16
  %cmp.not.i.i.i.i = icmp eq ptr %3, null
  br i1 %cmp.not.i.i.i.i, label %_ZN4cvc54SortC2ERKS0_.exit.thread, label %if.then.i.i.i.i

_ZN4cvc54SortC2ERKS0_.exit.thread:                ; preds = %entry
  call void @llvm.lifetime.start.p0(i64 24, ptr nonnull %agg.tmp.i)
  %d_overload_trie.i3 = getelementptr inbounds i8, ptr %0, i64 320
  store ptr %1, ptr %agg.tmp.i, align 16, !noalias !59
  %d_type.i.i4 = getelementptr inbounds i8, ptr %agg.tmp.i, i64 8
  store ptr %2, ptr %d_type.i.i4, align 8, !noalias !59
  %_M_refcount.i.i.i.i5 = getelementptr inbounds i8, ptr %agg.tmp.i, i64 16
  store ptr null, ptr %_M_refcount.i.i.i.i5, align 16, !noalias !59
  br label %_ZN4cvc54SortC2ERKS0_.exit.i

if.then.i.i.i.i:                                  ; preds = %entry
  %_M_use_count.i.i.i.i.i = getelementptr inbounds i8, ptr %3, i64 8
  %4 = load i8, ptr @__libc_single_threaded, align 1
  %tobool.i.not.i.i.i.i.i = icmp eq i8 %4, 0
  br i1 %tobool.i.not.i.i.i.i.i, label %_ZN4cvc54SortC2ERKS0_.exit, label %_ZN4cvc54SortC2ERKS0_.exit.thread8

_ZN4cvc54SortC2ERKS0_.exit.thread8:               ; preds = %if.then.i.i.i.i
  %5 = load i32, ptr %_M_use_count.i.i.i.i.i, align 4
  %add.i.i.i.i.i.i = add nsw i32 %5, 1
  store i32 %add.i.i.i.i.i.i, ptr %_M_use_count.i.i.i.i.i, align 4
  call void @llvm.lifetime.start.p0(i64 24, ptr nonnull %agg.tmp.i)
  %d_overload_trie.i9 = getelementptr inbounds i8, ptr %0, i64 320
  store ptr %1, ptr %agg.tmp.i, align 16, !noalias !59
  %d_type.i.i10 = getelementptr inbounds i8, ptr %agg.tmp.i, i64 8
  store ptr %2, ptr %d_type.i.i10, align 8, !noalias !59
  %_M_refcount.i.i.i.i11 = getelementptr inbounds i8, ptr %agg.tmp.i, i64 16
  store ptr %3, ptr %_M_refcount.i.i.i.i11, align 16, !noalias !59
  br label %if.then.i.i.i.i.i

_ZN4cvc54SortC2ERKS0_.exit:                       ; preds = %if.then.i.i.i.i
  %6 = atomicrmw volatile add ptr %_M_use_count.i.i.i.i.i, i32 1 acq_rel, align 4
  %.pre2 = load ptr, ptr %_M_refcount.i.i.i, align 16, !noalias !59
  call void @llvm.lifetime.start.p0(i64 24, ptr nonnull %agg.tmp.i)
  %d_overload_trie.i = getelementptr inbounds i8, ptr %0, i64 320
  %7 = load <2 x ptr>, ptr %agg.tmp, align 16, !noalias !59
  store <2 x ptr> %7, ptr %agg.tmp.i, align 16, !noalias !59
  %_M_refcount.i.i.i.i = getelementptr inbounds i8, ptr %agg.tmp.i, i64 16
  store ptr %.pre2, ptr %_M_refcount.i.i.i.i, align 16, !noalias !59
  %cmp.not.i.i.i.i.i = icmp eq ptr %.pre2, null
  br i1 %cmp.not.i.i.i.i.i, label %_ZN4cvc54SortC2ERKS0_.exit.i, label %if.then.i.i.i.i.i

if.then.i.i.i.i.i:                                ; preds = %_ZN4cvc54SortC2ERKS0_.exit.thread8, %_ZN4cvc54SortC2ERKS0_.exit
  %d_overload_trie.i13 = phi ptr [ %d_overload_trie.i9, %_ZN4cvc54SortC2ERKS0_.exit.thread8 ], [ %d_overload_trie.i, %_ZN4cvc54SortC2ERKS0_.exit ]
  %8 = phi ptr [ %3, %_ZN4cvc54SortC2ERKS0_.exit.thread8 ], [ %.pre2, %_ZN4cvc54SortC2ERKS0_.exit ]
  %_M_use_count.i.i.i.i.i.i = getelementptr inbounds i8, ptr %8, i64 8
  %9 = load i8, ptr @__libc_single_threaded, align 1, !noalias !59
  %tobool.i.not.i.i.i.i.i.i = icmp eq i8 %9, 0
  br i1 %tobool.i.not.i.i.i.i.i.i, label %if.else.i.i.i.i.i.i.i, label %if.then.i.i.i.i.i.i.i

if.then.i.i.i.i.i.i.i:                            ; preds = %if.then.i.i.i.i.i
  %10 = load i32, ptr %_M_use_count.i.i.i.i.i.i, align 4, !noalias !59
  %add.i.i.i.i.i.i.i = add nsw i32 %10, 1
  store i32 %add.i.i.i.i.i.i.i, ptr %_M_use_count.i.i.i.i.i.i, align 4, !noalias !59
  br label %_ZN4cvc54SortC2ERKS0_.exit.i

if.else.i.i.i.i.i.i.i:                            ; preds = %if.then.i.i.i.i.i
  %11 = atomicrmw volatile add ptr %_M_use_count.i.i.i.i.i.i, i32 1 acq_rel, align 4, !noalias !59
  br label %_ZN4cvc54SortC2ERKS0_.exit.i

_ZN4cvc54SortC2ERKS0_.exit.i:                     ; preds = %_ZN4cvc54SortC2ERKS0_.exit.thread, %if.else.i.i.i.i.i.i.i, %if.then.i.i.i.i.i.i.i, %_ZN4cvc54SortC2ERKS0_.exit
  %d_overload_trie.i7 = phi ptr [ %d_overload_trie.i3, %_ZN4cvc54SortC2ERKS0_.exit.thread ], [ %d_overload_trie.i13, %if.else.i.i.i.i.i.i.i ], [ %d_overload_trie.i13, %if.then.i.i.i.i.i.i.i ], [ %d_overload_trie.i, %_ZN4cvc54SortC2ERKS0_.exit ]
  invoke void @_ZNK4cvc58internal6parser18OverloadedTypeTrie28getOverloadedConstantForTypeERKNSt7__cxx1112basic_stringIcSt11char_traitsIcESaIcEEENS_4SortE(ptr sret(%"class.cvc5::Term") align 8 %agg.result, ptr noundef nonnull align 8 dereferenceable(89) %d_overload_trie.i7, ptr noundef nonnull align 8 dereferenceable(32) %name, ptr noundef nonnull %agg.tmp.i)
          to label %invoke.cont unwind label %lpad.i

lpad.i:                                           ; preds = %_ZN4cvc54SortC2ERKS0_.exit.i
  %12 = landingpad { ptr, i32 }
          cleanup
  call void @_ZN4cvc54SortD1Ev(ptr noundef nonnull align 8 dereferenceable(24) %agg.tmp.i) #19
  call void @_ZN4cvc54SortD1Ev(ptr noundef nonnull align 8 dereferenceable(24) %agg.tmp) #19
  resume { ptr, i32 } %12

invoke.cont:                                      ; preds = %_ZN4cvc54SortC2ERKS0_.exit.i
  call void @_ZN4cvc54SortD1Ev(ptr noundef nonnull align 8 dereferenceable(24) %agg.tmp.i) #19
  call void @llvm.lifetime.end.p0(i64 24, ptr nonnull %agg.tmp.i)
  call void @_ZN4cvc54SortD1Ev(ptr noundef nonnull align 8 dereferenceable(24) %agg.tmp) #19
  ret void
}